target datalayout = "e-m:e-p270:32:32-p271:32:32-p272:64:64-i64:64-i128:128-f80:128-n8:16:32:64-S128"
target triple = "x86_64-pc-linux-gnu"

%struct.PJconsts = type <{ ptr, ptr, ptr, ptr, ptr, ptr, ptr, ptr, ptr, ptr, ptr, ptr, i32, [4 x i8], ptr, ptr, ptr, ptr, ptr, ptr, ptr, ptr, double, double, double, double, double, double, double, double, double, double, double, double, double, double, double, double, double, double, double, double, double, double, i32, i32, i32, i32, i32, i32, i32, i32, i32, i32, i32, [4 x i8], ptr, ptr, ptr, ptr, ptr, ptr, double, double, double, double, double, double, double, double, double, double, double, i32, [4 x i8], [7 x double], i32, [4 x i8], ptr, ptr, double, double, i32, [4 x i8], %"class.std::shared_ptr", i8, [7 x i8], double, i8, [7 x i8], %"class.std::__cxx11::basic_string", %"class.std::__cxx11::basic_string", %"class.std::__cxx11::basic_string", i8, [7 x i8], %"class.std::vector", i32, [4 x i8], %"class.std::vector.3", i32, i8, i8, i8, i8 }>
%"class.std::shared_ptr" = type { %"class.std::__shared_ptr" }
%"class.std::__shared_ptr" = type { ptr, %"class.std::__shared_count" }
%"class.std::__shared_count" = type { ptr }
%"class.std::__cxx11::basic_string" = type { %"struct.std::__cxx11::basic_string<char>::_Alloc_hider", i64, %union.anon }
%"struct.std::__cxx11::basic_string<char>::_Alloc_hider" = type { ptr }
%union.anon = type { i64, [8 x i8] }
%"class.std::vector" = type { %"struct.std::_Vector_base" }
%"struct.std::_Vector_base" = type { %"struct.std::_Vector_base<osgeo::proj::operation::GridDescription, std::allocator<osgeo::proj::operation::GridDescription>>::_Vector_impl" }
%"struct.std::_Vector_base<osgeo::proj::operation::GridDescription, std::allocator<osgeo::proj::operation::GridDescription>>::_Vector_impl" = type { %"struct.std::_Vector_base<osgeo::proj::operation::GridDescription, std::allocator<osgeo::proj::operation::GridDescription>>::_Vector_impl_data" }
%"struct.std::_Vector_base<osgeo::proj::operation::GridDescription, std::allocator<osgeo::proj::operation::GridDescription>>::_Vector_impl_data" = type { ptr, ptr, ptr }
%"class.std::vector.3" = type { %"struct.std::_Vector_base.4" }
%"struct.std::_Vector_base.4" = type { %"struct.std::_Vector_base<PJCoordOperation, std::allocator<PJCoordOperation>>::_Vector_impl" }
%"struct.std::_Vector_base<PJCoordOperation, std::allocator<PJCoordOperation>>::_Vector_impl" = type { %"struct.std::_Vector_base<PJCoordOperation, std::allocator<PJCoordOperation>>::_Vector_impl_data" }
%"struct.std::_Vector_base<PJCoordOperation, std::allocator<PJCoordOperation>>::_Vector_impl_data" = type { ptr, ptr, ptr }
%"struct.(anonymous namespace)::pj_goode_data" = type { ptr, ptr }

; Function Attrs: mustprogress uwtable
define internal noundef ptr @_ZL16goode_destructorP8PJconstsi(ptr noundef %0, i32 noundef %1) #0 {
  %3 = alloca ptr, align 8
  %4 = alloca ptr, align 8
  %5 = alloca i32, align 4
  store ptr %0, ptr %4, align 8
  store i32 %1, ptr %5, align 4
  %6 = load ptr, ptr %4, align 8
  %7 = icmp eq ptr null, %6
  br i1 %7, label %8, label %9

8:                                                ; preds = %2
  store ptr null, ptr %3, align 8
  br label %34

9:                                                ; preds = %2
  %10 = load ptr, ptr %4, align 8
  %11 = getelementptr inbounds %struct.PJconsts, ptr %10, i32 0, i32 11
  %12 = load ptr, ptr %11, align 8
  %13 = icmp eq ptr null, %12
  br i1 %13, label %14, label %18

14:                                               ; preds = %9
  %15 = load ptr, ptr %4, align 8
  %16 = load i32, ptr %5, align 4
  %17 = call noundef ptr @_Z21pj_default_destructorP8PJconstsi(ptr noundef %15, i32 noundef %16)
  store ptr %17, ptr %3, align 8
  br label %34

18:                                               ; preds = %9
  %19 = load ptr, ptr %4, align 8
  %20 = getelementptr inbounds %struct.PJconsts, ptr %19, i32 0, i32 11
  %21 = load ptr, ptr %20, align 8
  %22 = getelementptr inbounds %"struct.(anonymous namespace)::pj_goode_data", ptr %21, i32 0, i32 0
  %23 = load ptr, ptr %22, align 8
  %24 = call ptr @proj_destroy(ptr noundef %23)
  %25 = load ptr, ptr %4, align 8
  %26 = getelementptr inbounds %struct.PJconsts, ptr %25, i32 0, i32 11
  %27 = load ptr, ptr %26, align 8
  %28 = getelementptr inbounds %"struct.(anonymous namespace)::pj_goode_data", ptr %27, i32 0, i32 1
  %29 = load ptr, ptr %28, align 8
  %30 = call ptr @proj_destroy(ptr noundef %29)
  %31 = load ptr, ptr %4, align 8
  %32 = load i32, ptr %5, align 4
  %33 = call noundef ptr @_Z21pj_default_destructorP8PJconstsi(ptr noundef %31, i32 noundef %32)
  store ptr %33, ptr %3, align 8
  br label %34

34:                                               ; preds = %18, %14, %8
  %35 = load ptr, ptr %3, align 8
  ret ptr %35
}

; Function Attrs: mustprogress uwtable
define hidden noundef ptr @_Z34pj_projection_specific_setup_goodeP8PJconsts(ptr noundef %0) #0 {
  %2 = alloca ptr, align 8
  %3 = alloca ptr, align 8
  %4 = alloca ptr, align 8
  store ptr %0, ptr %3, align 8
  %5 = call noalias ptr @calloc(i64 noundef 1, i64 noundef 16) #5
  store ptr %5, ptr %4, align 8
  %6 = load ptr, ptr %4, align 8
  %7 = icmp eq ptr null, %6
  br i1 %7, label %8, label %11

8:                                                ; preds = %1
  %9 = load ptr, ptr %3, align 8
  %10 = call noundef ptr @_Z21pj_default_destructorP8PJconstsi(ptr noundef %9, i32 noundef 4096)
  store ptr %10, ptr %2, align 8
  br label %86

11:                                               ; preds = %1
  %12 = load ptr, ptr %4, align 8
  %13 = load ptr, ptr %3, align 8
  %14 = getelementptr inbounds %struct.PJconsts, ptr %13, i32 0, i32 11
  store ptr %12, ptr %14, align 8
  %15 = load ptr, ptr %3, align 8
  %16 = getelementptr inbounds %struct.PJconsts, ptr %15, i32 0, i32 20
  store ptr @_ZL16goode_destructorP8PJconstsi, ptr %16, align 8
  %17 = load ptr, ptr %3, align 8
  %18 = getelementptr inbounds %struct.PJconsts, ptr %17, i32 0, i32 28
  store double 0.000000e+00, ptr %18, align 8
  %19 = call ptr @pj_sinu(ptr noundef null)
  %20 = load ptr, ptr %4, align 8
  %21 = getelementptr inbounds %"struct.(anonymous namespace)::pj_goode_data", ptr %20, i32 0, i32 0
  store ptr %19, ptr %21, align 8
  %22 = call ptr @pj_moll(ptr noundef null)
  %23 = load ptr, ptr %4, align 8
  %24 = getelementptr inbounds %"struct.(anonymous namespace)::pj_goode_data", ptr %23, i32 0, i32 1
  store ptr %22, ptr %24, align 8
  %25 = load ptr, ptr %4, align 8
  %26 = getelementptr inbounds %"struct.(anonymous namespace)::pj_goode_data", ptr %25, i32 0, i32 0
  %27 = load ptr, ptr %26, align 8
  %28 = icmp eq ptr %27, null
  br i1 %28, label %34, label %29

29:                                               ; preds = %11
  %30 = load ptr, ptr %4, align 8
  %31 = getelementptr inbounds %"struct.(anonymous namespace)::pj_goode_data", ptr %30, i32 0, i32 1
  %32 = load ptr, ptr %31, align 8
  %33 = icmp eq ptr %32, null
  br i1 %33, label %34, label %37

34:                                               ; preds = %29, %11
  %35 = load ptr, ptr %3, align 8
  %36 = call noundef ptr @_ZL16goode_destructorP8PJconstsi(ptr noundef %35, i32 noundef 4096)
  store ptr %36, ptr %2, align 8
  br label %86

37:                                               ; preds = %29
  %38 = load ptr, ptr %4, align 8
  %39 = getelementptr inbounds %"struct.(anonymous namespace)::pj_goode_data", ptr %38, i32 0, i32 0
  %40 = load ptr, ptr %39, align 8
  %41 = getelementptr inbounds %struct.PJconsts, ptr %40, i32 0, i32 28
  store double 0.000000e+00, ptr %41, align 8
  %42 = load ptr, ptr %3, align 8
  %43 = getelementptr inbounds %struct.PJconsts, ptr %42, i32 0, i32 0
  %44 = load ptr, ptr %43, align 8
  %45 = load ptr, ptr %4, align 8
  %46 = getelementptr inbounds %"struct.(anonymous namespace)::pj_goode_data", ptr %45, i32 0, i32 0
  %47 = load ptr, ptr %46, align 8
  %48 = getelementptr inbounds %struct.PJconsts, ptr %47, i32 0, i32 0
  store ptr %44, ptr %48, align 8
  %49 = load ptr, ptr %3, align 8
  %50 = getelementptr inbounds %struct.PJconsts, ptr %49, i32 0, i32 0
  %51 = load ptr, ptr %50, align 8
  %52 = load ptr, ptr %4, align 8
  %53 = getelementptr inbounds %"struct.(anonymous namespace)::pj_goode_data", ptr %52, i32 0, i32 1
  %54 = load ptr, ptr %53, align 8
  %55 = getelementptr inbounds %struct.PJconsts, ptr %54, i32 0, i32 0
  store ptr %51, ptr %55, align 8
  %56 = load ptr, ptr %4, align 8
  %57 = getelementptr inbounds %"struct.(anonymous namespace)::pj_goode_data", ptr %56, i32 0, i32 0
  %58 = load ptr, ptr %57, align 8
  %59 = call ptr @pj_sinu(ptr noundef %58)
  %60 = load ptr, ptr %4, align 8
  %61 = getelementptr inbounds %"struct.(anonymous namespace)::pj_goode_data", ptr %60, i32 0, i32 0
  store ptr %59, ptr %61, align 8
  %62 = load ptr, ptr %4, align 8
  %63 = getelementptr inbounds %"struct.(anonymous namespace)::pj_goode_data", ptr %62, i32 0, i32 1
  %64 = load ptr, ptr %63, align 8
  %65 = call ptr @pj_moll(ptr noundef %64)
  %66 = load ptr, ptr %4, align 8
  %67 = getelementptr inbounds %"struct.(anonymous namespace)::pj_goode_data", ptr %66, i32 0, i32 1
  store ptr %65, ptr %67, align 8
  %68 = load ptr, ptr %4, align 8
  %69 = getelementptr inbounds %"struct.(anonymous namespace)::pj_goode_data", ptr %68, i32 0, i32 0
  %70 = load ptr, ptr %69, align 8
  %71 = icmp eq ptr %70, null
  br i1 %71, label %77, label %72

72:                                               ; preds = %37
  %73 = load ptr, ptr %4, align 8
  %74 = getelementptr inbounds %"struct.(anonymous namespace)::pj_goode_data", ptr %73, i32 0, i32 1
  %75 = load ptr, ptr %74, align 8
  %76 = icmp eq ptr %75, null
  br i1 %76, label %77, label %80

77:                                               ; preds = %72, %37
  %78 = load ptr, ptr %3, align 8
  %79 = call noundef ptr @_ZL16goode_destructorP8PJconstsi(ptr noundef %78, i32 noundef 4096)
  store ptr %79, ptr %2, align 8
  br label %86

80:                                               ; preds = %72
  %81 = load ptr, ptr %3, align 8
  %82 = getelementptr inbounds %struct.PJconsts, ptr %81, i32 0, i32 14
  store ptr @_ZL15goode_s_forward5PJ_LPP8PJconsts, ptr %82, align 8
  %83 = load ptr, ptr %3, align 8
  %84 = getelementptr inbounds %struct.PJconsts, ptr %83, i32 0, i32 15
  store ptr @_ZL15goode_s_inverse5PJ_XYP8PJconsts, ptr %84, align 8
  %85 = load ptr, ptr %3, align 8
  store ptr %85, ptr %2, align 8
  br label %86

86:                                               ; preds = %80, %77, %34, %8
  %87 = load ptr, ptr %2, align 8
  ret ptr %87
}