; Function Attrs: mustprogress uwtable
define hidden noundef ptr @_Z34pj_projection_specific_setup_goodeP8PJconsts(ptr noundef %0) local_unnamed_addr #0 {
  %2 = tail call noalias dereferenceable_or_null(16) ptr @calloc(i64 noundef 1, i64 noundef 16) #4
  %3 = icmp eq ptr %2, null
  br i1 %3, label %4, label %6

4:                                                ; preds = %1
  %5 = tail call noundef ptr @_Z21pj_default_destructorP8PJconstsi(ptr noundef %0, i32 noundef 4096)
  br label %53

6:                                                ; preds = %1
  %7 = getelementptr inbounds i8, ptr %0, i64 88
  store ptr %2, ptr %7, align 8
  %8 = getelementptr inbounds i8, ptr %0, i64 152
  store ptr @_ZL16goode_destructorP8PJconstsi, ptr %8, align 8
  %9 = getelementptr inbounds i8, ptr %0, i64 216
  store double 0.000000e+00, ptr %9, align 8
  %10 = tail call ptr @pj_sinu(ptr noundef null)
  store ptr %10, ptr %2, align 8
  %11 = tail call ptr @pj_moll(ptr noundef null)
  %12 = getelementptr inbounds i8, ptr %2, i64 8
  store ptr %11, ptr %12, align 8
  %13 = load ptr, ptr %2, align 8
  %14 = icmp eq ptr %13, null
  %15 = icmp eq ptr %11, null
  %or.cond = select i1 %14, i1 true, i1 %15
  br i1 %or.cond, label %16, label %27

16:                                               ; preds = %6
  %17 = load ptr, ptr %7, align 8
  %18 = icmp eq ptr %17, null
  br i1 %18, label %_ZL16goode_destructorP8PJconstsi.exit, label %19

19:                                               ; preds = %16
  %20 = load ptr, ptr %17, align 8
  %21 = tail call ptr @proj_destroy(ptr noundef %20)
  %22 = load ptr, ptr %7, align 8
  %23 = getelementptr inbounds i8, ptr %22, i64 8
  %24 = load ptr, ptr %23, align 8
  %25 = tail call ptr @proj_destroy(ptr noundef %24)
  br label %_ZL16goode_destructorP8PJconstsi.exit

_ZL16goode_destructorP8PJconstsi.exit:            ; preds = %16, %19
  %26 = tail call noundef ptr @_Z21pj_default_destructorP8PJconstsi(ptr noundef nonnull %0, i32 noundef 4096)
  br label %53

27:                                               ; preds = %6
  %28 = getelementptr inbounds i8, ptr %13, i64 216
  store double 0.000000e+00, ptr %28, align 8
  %29 = load ptr, ptr %0, align 8
  %30 = load ptr, ptr %2, align 8
  store ptr %29, ptr %30, align 8
  %31 = load ptr, ptr %12, align 8
  store ptr %29, ptr %31, align 8
  %32 = load ptr, ptr %2, align 8
  %33 = tail call ptr @pj_sinu(ptr noundef %32)
  store ptr %33, ptr %2, align 8
  %34 = load ptr, ptr %12, align 8
  %35 = tail call ptr @pj_moll(ptr noundef %34)
  store ptr %35, ptr %12, align 8
  %36 = load ptr, ptr %2, align 8
  %37 = icmp eq ptr %36, null
  %38 = icmp eq ptr %35, null
  %or.cond29 = select i1 %37, i1 true, i1 %38
  br i1 %or.cond29, label %39, label %50

39:                                               ; preds = %27
  %40 = load ptr, ptr %7, align 8
  %41 = icmp eq ptr %40, null
  br i1 %41, label %_ZL16goode_destructorP8PJconstsi.exit32, label %42

42:                                               ; preds = %39
  %43 = load ptr, ptr %40, align 8
  %44 = tail call ptr @proj_destroy(ptr noundef %43)
  %45 = load ptr, ptr %7, align 8
  %46 = getelementptr inbounds i8, ptr %45, i64 8
  %47 = load ptr, ptr %46, align 8
  %48 = tail call ptr @proj_destroy(ptr noundef %47)
  br label %_ZL16goode_destructorP8PJconstsi.exit32

_ZL16goode_destructorP8PJconstsi.exit32:          ; preds = %39, %42
  %49 = tail call noundef ptr @_Z21pj_default_destructorP8PJconstsi(ptr noundef nonnull %0, i32 noundef 4096)
  br label %53

50:                                               ; preds = %27
  %51 = getelementptr inbounds i8, ptr %0, i64 104
  store ptr @_ZL15goode_s_forward5PJ_LPP8PJconsts, ptr %51, align 8
  %52 = getelementptr inbounds i8, ptr %0, i64 112
  store ptr @_ZL15goode_s_inverse5PJ_XYP8PJconsts, ptr %52, align 8
  br label %53

53:                                               ; preds = %50, %_ZL16goode_destructorP8PJconstsi.exit32, %_ZL16goode_destructorP8PJconstsi.exit, %4
  %.0 = phi ptr [ %5, %4 ], [ %26, %_ZL16goode_destructorP8PJconstsi.exit ], [ %49, %_ZL16goode_destructorP8PJconstsi.exit32 ], [ %0, %50 ]
  ret ptr %.0
}